target datalayout = "e-m:e-p270:32:32-p271:32:32-p272:64:64-i64:64-i128:128-f80:128-n8:16:32:64-S128"
target triple = "x86_64-pc-linux-gnu"

@.str = private unnamed_addr constant [2 x i8] c"p\00", align 1
@.str.1 = private unnamed_addr constant [11 x i8] c"listpack.c\00", align 1
@.str.30 = private unnamed_addr constant [32 x i8] c"lpValidateNext(lp, &p, lpbytes)\00", align 1

; Function Attrs: inlinehint nounwind uwtable
define internal i64 @lpEncodeBacklenBytes(i64 noundef %0) #6 {
  %2 = alloca i64, align 8
  %3 = alloca i64, align 8
  store i64 %0, ptr %3, align 8, !tbaa !10
  %4 = load i64, ptr %3, align 8, !tbaa !10
  %5 = icmp ule i64 %4, 127
  br i1 %5, label %6, label %7

6:                                                ; preds = %1
  store i64 1, ptr %2, align 8
  br label %20

7:                                                ; preds = %1
  %8 = load i64, ptr %3, align 8, !tbaa !10
  %9 = icmp ult i64 %8, 16383
  br i1 %9, label %10, label %11

10:                                               ; preds = %7
  store i64 2, ptr %2, align 8
  br label %20

11:                                               ; preds = %7
  %12 = load i64, ptr %3, align 8, !tbaa !10
  %13 = icmp ult i64 %12, 2097151
  br i1 %13, label %14, label %15

14:                                               ; preds = %11
  store i64 3, ptr %2, align 8
  br label %20

15:                                               ; preds = %11
  %16 = load i64, ptr %3, align 8, !tbaa !10
  %17 = icmp ult i64 %16, 268435455
  br i1 %17, label %18, label %19

18:                                               ; preds = %15
  store i64 4, ptr %2, align 8
  br label %20

19:                                               ; preds = %15
  store i64 5, ptr %2, align 8
  br label %20

20:                                               ; preds = %19, %18, %14, %10, %6
  %21 = load i64, ptr %2, align 8
  ret i64 %21
}

; Function Attrs: inlinehint nounwind uwtable
define internal i32 @lpCurrentEncodedSizeUnsafe(ptr noundef %0) #6 {
  %2 = alloca i32, align 4
  %3 = alloca ptr, align 8
  store ptr %0, ptr %3, align 8, !tbaa !5
  %4 = load ptr, ptr %3, align 8, !tbaa !5
  %5 = getelementptr inbounds i8, ptr %4, i64 0
  %6 = load i8, ptr %5, align 1, !tbaa !12
  %7 = zext i8 %6 to i32
  %8 = and i32 %7, 128
  %9 = icmp eq i32 %8, 0
  br i1 %9, label %10, label %11

10:                                               ; preds = %1
  store i32 1, ptr %2, align 4
  br label %125

11:                                               ; preds = %1
  %12 = load ptr, ptr %3, align 8, !tbaa !5
  %13 = getelementptr inbounds i8, ptr %12, i64 0
  %14 = load i8, ptr %13, align 1, !tbaa !12
  %15 = zext i8 %14 to i32
  %16 = and i32 %15, 192
  %17 = icmp eq i32 %16, 128
  br i1 %17, label %18, label %25

18:                                               ; preds = %11
  %19 = load ptr, ptr %3, align 8, !tbaa !5
  %20 = getelementptr inbounds i8, ptr %19, i64 0
  %21 = load i8, ptr %20, align 1, !tbaa !12
  %22 = zext i8 %21 to i32
  %23 = and i32 %22, 63
  %24 = add nsw i32 1, %23
  store i32 %24, ptr %2, align 4
  br label %125

25:                                               ; preds = %11
  %26 = load ptr, ptr %3, align 8, !tbaa !5
  %27 = getelementptr inbounds i8, ptr %26, i64 0
  %28 = load i8, ptr %27, align 1, !tbaa !12
  %29 = zext i8 %28 to i32
  %30 = and i32 %29, 224
  %31 = icmp eq i32 %30, 192
  br i1 %31, label %32, label %33

32:                                               ; preds = %25
  store i32 2, ptr %2, align 4
  br label %125

33:                                               ; preds = %25
  %34 = load ptr, ptr %3, align 8, !tbaa !5
  %35 = getelementptr inbounds i8, ptr %34, i64 0
  %36 = load i8, ptr %35, align 1, !tbaa !12
  %37 = zext i8 %36 to i32
  %38 = and i32 %37, 255
  %39 = icmp eq i32 %38, 241
  br i1 %39, label %40, label %41

40:                                               ; preds = %33
  store i32 3, ptr %2, align 4
  br label %125

41:                                               ; preds = %33
  %42 = load ptr, ptr %3, align 8, !tbaa !5
  %43 = getelementptr inbounds i8, ptr %42, i64 0
  %44 = load i8, ptr %43, align 1, !tbaa !12
  %45 = zext i8 %44 to i32
  %46 = and i32 %45, 255
  %47 = icmp eq i32 %46, 242
  br i1 %47, label %48, label %49

48:                                               ; preds = %41
  store i32 4, ptr %2, align 4
  br label %125

49:                                               ; preds = %41
  %50 = load ptr, ptr %3, align 8, !tbaa !5
  %51 = getelementptr inbounds i8, ptr %50, i64 0
  %52 = load i8, ptr %51, align 1, !tbaa !12
  %53 = zext i8 %52 to i32
  %54 = and i32 %53, 255
  %55 = icmp eq i32 %54, 243
  br i1 %55, label %56, label %57

56:                                               ; preds = %49
  store i32 5, ptr %2, align 4
  br label %125

57:                                               ; preds = %49
  %58 = load ptr, ptr %3, align 8, !tbaa !5
  %59 = getelementptr inbounds i8, ptr %58, i64 0
  %60 = load i8, ptr %59, align 1, !tbaa !12
  %61 = zext i8 %60 to i32
  %62 = and i32 %61, 255
  %63 = icmp eq i32 %62, 244
  br i1 %63, label %64, label %65

64:                                               ; preds = %57
  store i32 9, ptr %2, align 4
  br label %125

65:                                               ; preds = %57
  %66 = load ptr, ptr %3, align 8, !tbaa !5
  %67 = getelementptr inbounds i8, ptr %66, i64 0
  %68 = load i8, ptr %67, align 1, !tbaa !12
  %69 = zext i8 %68 to i32
  %70 = and i32 %69, 240
  %71 = icmp eq i32 %70, 224
  br i1 %71, label %72, label %85

72:                                               ; preds = %65
  %73 = load ptr, ptr %3, align 8, !tbaa !5
  %74 = getelementptr inbounds i8, ptr %73, i64 0
  %75 = load i8, ptr %74, align 1, !tbaa !12
  %76 = zext i8 %75 to i32
  %77 = and i32 %76, 15
  %78 = shl i32 %77, 8
  %79 = load ptr, ptr %3, align 8, !tbaa !5
  %80 = getelementptr inbounds i8, ptr %79, i64 1
  %81 = load i8, ptr %80, align 1, !tbaa !12
  %82 = zext i8 %81 to i32
  %83 = or i32 %78, %82
  %84 = add nsw i32 2, %83
  store i32 %84, ptr %2, align 4
  br label %125

85:                                               ; preds = %65
  %86 = load ptr, ptr %3, align 8, !tbaa !5
  %87 = getelementptr inbounds i8, ptr %86, i64 0
  %88 = load i8, ptr %87, align 1, !tbaa !12
  %89 = zext i8 %88 to i32
  %90 = and i32 %89, 255
  %91 = icmp eq i32 %90, 240
  br i1 %91, label %92, label %117

92:                                               ; preds = %85
  %93 = load ptr, ptr %3, align 8, !tbaa !5
  %94 = getelementptr inbounds i8, ptr %93, i64 1
  %95 = load i8, ptr %94, align 1, !tbaa !12
  %96 = zext i8 %95 to i32
  %97 = shl i32 %96, 0
  %98 = load ptr, ptr %3, align 8, !tbaa !5
  %99 = getelementptr inbounds i8, ptr %98, i64 2
  %100 = load i8, ptr %99, align 1, !tbaa !12
  %101 = zext i8 %100 to i32
  %102 = shl i32 %101, 8
  %103 = or i32 %97, %102
  %104 = load ptr, ptr %3, align 8, !tbaa !5
  %105 = getelementptr inbounds i8, ptr %104, i64 3
  %106 = load i8, ptr %105, align 1, !tbaa !12
  %107 = zext i8 %106 to i32
  %108 = shl i32 %107, 16
  %109 = or i32 %103, %108
  %110 = load ptr, ptr %3, align 8, !tbaa !5
  %111 = getelementptr inbounds i8, ptr %110, i64 4
  %112 = load i8, ptr %111, align 1, !tbaa !12
  %113 = zext i8 %112 to i32
  %114 = shl i32 %113, 24
  %115 = or i32 %109, %114
  %116 = add i32 5, %115
  store i32 %116, ptr %2, align 4
  br label %125

117:                                              ; preds = %85
  %118 = load ptr, ptr %3, align 8, !tbaa !5
  %119 = getelementptr inbounds i8, ptr %118, i64 0
  %120 = load i8, ptr %119, align 1, !tbaa !12
  %121 = zext i8 %120 to i32
  %122 = icmp eq i32 %121, 255
  br i1 %122, label %123, label %124

123:                                              ; preds = %117
  store i32 1, ptr %2, align 4
  br label %125

124:                                              ; preds = %117
  store i32 0, ptr %2, align 4
  br label %125

125:                                              ; preds = %124, %123, %92, %72, %64, %56, %48, %40, %32, %18, %10
  %126 = load i32, ptr %2, align 4
  ret i32 %126
}

; Function Attrs: inlinehint nounwind uwtable
define internal void @lpAssertValidEntry(ptr noundef %0, i64 noundef %1, ptr noundef %2) #6 {
  %4 = alloca ptr, align 8
  %5 = alloca i64, align 8
  %6 = alloca ptr, align 8
  store ptr %0, ptr %4, align 8, !tbaa !5
  store i64 %1, ptr %5, align 8, !tbaa !10
  store ptr %2, ptr %6, align 8, !tbaa !5
  %7 = load ptr, ptr %4, align 8, !tbaa !5
  %8 = load i64, ptr %5, align 8, !tbaa !10
  %9 = call i32 @lpValidateNext(ptr noundef %7, ptr noundef %6, i64 noundef %8)
  %10 = icmp ne i32 %9, 0
  %11 = xor i1 %10, true
  %12 = xor i1 %11, true
  %13 = zext i1 %12 to i32
  %14 = sext i32 %13 to i64
  %15 = call i64 @llvm.expect.i64(i64 %14, i64 1)
  %16 = icmp ne i64 %15, 0
  br i1 %16, label %17, label %18

17:                                               ; preds = %3
  br label %20

18:                                               ; preds = %3
  call void @_serverAssert(ptr noundef @.str.30, ptr noundef @.str.1, i32 noundef 1664)
  call void @abort() #11
  unreachable

19:                                               ; No predecessors!
  br label %20

20:                                               ; preds = %19, %17
  ret void
}

; Function Attrs: inlinehint nounwind uwtable
define internal ptr @lpSkip(ptr noundef %0) #6 {
  %2 = alloca ptr, align 8
  %3 = alloca i64, align 8
  store ptr %0, ptr %2, align 8, !tbaa !5
  call void @llvm.lifetime.start.p0(i64 8, ptr %3) #10
  %4 = load ptr, ptr %2, align 8, !tbaa !5
  %5 = call i32 @lpCurrentEncodedSizeUnsafe(ptr noundef %4)
  %6 = zext i32 %5 to i64
  store i64 %6, ptr %3, align 8, !tbaa !10
  %7 = load i64, ptr %3, align 8, !tbaa !10
  %8 = call i64 @lpEncodeBacklenBytes(i64 noundef %7)
  %9 = load i64, ptr %3, align 8, !tbaa !10
  %10 = add i64 %9, %8
  store i64 %10, ptr %3, align 8, !tbaa !10
  %11 = load i64, ptr %3, align 8, !tbaa !10
  %12 = load ptr, ptr %2, align 8, !tbaa !5
  %13 = getelementptr inbounds nuw i8, ptr %12, i64 %11
  store ptr %13, ptr %2, align 8, !tbaa !5
  %14 = load ptr, ptr %2, align 8, !tbaa !5
  call void @llvm.lifetime.end.p0(i64 8, ptr %3) #10
  ret ptr %14
}

; Function Attrs: nounwind uwtable
define dso_local ptr @lpNextWithBytes(ptr noundef %0, ptr noundef %1, i64 noundef %2) #0 {
  %4 = alloca ptr, align 8
  %5 = alloca ptr, align 8
  %6 = alloca ptr, align 8
  %7 = alloca i64, align 8
  store ptr %0, ptr %5, align 8, !tbaa !5
  store ptr %1, ptr %6, align 8, !tbaa !5
  store i64 %2, ptr %7, align 8, !tbaa !10
  %8 = load ptr, ptr %6, align 8, !tbaa !5
  %9 = icmp ne ptr %8, null
  %10 = xor i1 %9, true
  %11 = xor i1 %10, true
  %12 = zext i1 %11 to i32
  %13 = sext i32 %12 to i64
  %14 = call i64 @llvm.expect.i64(i64 %13, i64 1)
  %15 = icmp ne i64 %14, 0
  br i1 %15, label %16, label %17

16:                                               ; preds = %3
  br label %19

17:                                               ; preds = %3
  call void @_serverAssert(ptr noundef @.str, ptr noundef @.str.1, i32 noundef 483)
  call void @abort() #11
  unreachable

18:                                               ; No predecessors!
  br label %19

19:                                               ; preds = %18, %16
  %20 = load ptr, ptr %6, align 8, !tbaa !5
  %21 = call ptr @lpSkip(ptr noundef %20)
  store ptr %21, ptr %6, align 8, !tbaa !5
  %22 = load ptr, ptr %6, align 8, !tbaa !5
  %23 = getelementptr inbounds i8, ptr %22, i64 0
  %24 = load i8, ptr %23, align 1, !tbaa !12
  %25 = zext i8 %24 to i32
  %26 = icmp eq i32 %25, 255
  br i1 %26, label %27, label %28

27:                                               ; preds = %19
  store ptr null, ptr %4, align 8
  br label %33

28:                                               ; preds = %19
  %29 = load ptr, ptr %5, align 8, !tbaa !5
  %30 = load i64, ptr %7, align 8, !tbaa !10
  %31 = load ptr, ptr %6, align 8, !tbaa !5
  call void @lpAssertValidEntry(ptr noundef %29, i64 noundef %30, ptr noundef %31)
  %32 = load ptr, ptr %6, align 8, !tbaa !5
  store ptr %32, ptr %4, align 8
  br label %33

33:                                               ; preds = %28, %27
  %34 = load ptr, ptr %4, align 8
  ret ptr %34
}