; Function Attrs: nounwind uwtable
define dso_local noundef ptr @lpNextWithBytes(ptr noundef captures(address) %0, ptr noundef %1, i64 noundef %2) local_unnamed_addr #3 {
  %4 = alloca ptr, align 8
  %.not = icmp eq ptr %1, null
  br i1 %.not, label %5, label %6, !prof !12

5:                                                ; preds = %3
  tail call void @_serverAssert(ptr noundef nonnull @.str, ptr noundef nonnull @.str.1, i32 noundef 483) #20
  tail call void @abort() #21
  unreachable

6:                                                ; preds = %3
  %7 = load i8, ptr %1, align 1, !tbaa !5
  %8 = zext i8 %7 to i32
  %9 = icmp sgt i8 %7, -1
  br i1 %9, label %lpSkip.exit, label %10

10:                                               ; preds = %6
  %11 = and i32 %8, 192
  %12 = icmp eq i32 %11, 128
  br i1 %12, label %lpCurrentEncodedSizeUnsafe.exit.thread.i, label %15

lpCurrentEncodedSizeUnsafe.exit.thread.i:         ; preds = %10
  %13 = and i32 %8, 63
  %14 = add nuw nsw i32 %13, 1
  br label %lpSkip.exit

15:                                               ; preds = %10
  %16 = and i32 %8, 224
  %17 = icmp eq i32 %16, 192
  br i1 %17, label %lpSkip.exit, label %18

18:                                               ; preds = %15
  %switch.tableidx = add nsw i8 %7, 15
  %19 = icmp ult i8 %switch.tableidx, 4
  br i1 %19, label %switch.lookup, label %20

20:                                               ; preds = %18
  %21 = and i32 %8, 240
  %22 = icmp eq i32 %21, 224
  br i1 %22, label %23, label %31

23:                                               ; preds = %20
  %24 = shl nuw nsw i32 %8, 8
  %25 = and i32 %24, 3840
  %26 = getelementptr inbounds nuw i8, ptr %1, i64 1
  %27 = load i8, ptr %26, align 1, !tbaa !5
  %28 = zext i8 %27 to i32
  %29 = or disjoint i32 %25, 2
  %30 = add nuw nsw i32 %29, %28
  br label %lpCurrentEncodedSizeUnsafe.exit.i

31:                                               ; preds = %20
  switch i8 %7, label %36 [
    i8 -16, label %32
    i8 -1, label %lpSkip.exit
  ]

32:                                               ; preds = %31
  %33 = getelementptr inbounds nuw i8, ptr %1, i64 1
  %34 = load i32, ptr %33, align 1
  %35 = add i32 %34, 5
  br label %lpCurrentEncodedSizeUnsafe.exit.i

36:                                               ; preds = %31
  br label %lpSkip.exit

lpCurrentEncodedSizeUnsafe.exit.i:                ; preds = %32, %23
  %.0.i.i = phi i32 [ %30, %23 ], [ %35, %32 ]
  %37 = icmp ult i32 %.0.i.i, 128
  br i1 %37, label %lpSkip.exit, label %38

38:                                               ; preds = %lpCurrentEncodedSizeUnsafe.exit.i
  %39 = icmp ult i32 %.0.i.i, 16383
  br i1 %39, label %lpSkip.exit, label %40

40:                                               ; preds = %38
  %41 = icmp ult i32 %.0.i.i, 2097151
  br i1 %41, label %lpSkip.exit, label %42

42:                                               ; preds = %40
  %43 = icmp ult i32 %.0.i.i, 268435455
  %..i.i = select i1 %43, i64 4, i64 5
  br label %lpSkip.exit

switch.lookup:                                    ; preds = %18
  %44 = zext nneg i8 %switch.tableidx to i64
  %switch.gep = getelementptr inbounds nuw [4 x i32], ptr @switch.table.lpRandomPairs.5, i64 0, i64 %44
  %switch.load = load i32, ptr %switch.gep, align 4
  br label %lpSkip.exit

lpSkip.exit:                                      ; preds = %switch.lookup, %6, %lpCurrentEncodedSizeUnsafe.exit.thread.i, %15, %31, %36, %lpCurrentEncodedSizeUnsafe.exit.i, %38, %40, %42
  %.shrunk.i = phi i32 [ %.0.i.i, %lpCurrentEncodedSizeUnsafe.exit.i ], [ %.0.i.i, %38 ], [ %.0.i.i, %40 ], [ %.0.i.i, %42 ], [ 1, %31 ], [ 2, %15 ], [ 1, %6 ], [ 0, %36 ], [ %14, %lpCurrentEncodedSizeUnsafe.exit.thread.i ], [ %switch.load, %switch.lookup ]
  %.0.i5.i = phi i64 [ 1, %lpCurrentEncodedSizeUnsafe.exit.i ], [ 2, %38 ], [ 3, %40 ], [ %..i.i, %42 ], [ 1, %31 ], [ 1, %15 ], [ 1, %6 ], [ 1, %36 ], [ 1, %lpCurrentEncodedSizeUnsafe.exit.thread.i ], [ 1, %switch.lookup ]
  %45 = zext i32 %.shrunk.i to i64
  %46 = getelementptr inbounds nuw i8, ptr %1, i64 %.0.i5.i
  %47 = getelementptr inbounds nuw i8, ptr %46, i64 %45
  %48 = load i8, ptr %47, align 1, !tbaa !5
  %49 = icmp eq i8 %48, -1
  br i1 %49, label %53, label %50

50:                                               ; preds = %lpSkip.exit
  call void @llvm.lifetime.start.p0(i64 8, ptr nonnull %4)
  store ptr %47, ptr %4, align 8, !tbaa !13
  %51 = call i32 @lpValidateNext(ptr noundef %0, ptr noundef nonnull %4, i64 noundef %2)
  %.not.i = icmp eq i32 %51, 0
  br i1 %.not.i, label %52, label %lpAssertValidEntry.exit, !prof !12

52:                                               ; preds = %50
  tail call void @_serverAssert(ptr noundef nonnull @.str.30, ptr noundef nonnull @.str.1, i32 noundef 1664) #20
  tail call void @abort() #21
  unreachable

lpAssertValidEntry.exit:                          ; preds = %50
  call void @llvm.lifetime.end.p0(i64 8, ptr nonnull %4)
  br label %53

53:                                               ; preds = %lpSkip.exit, %lpAssertValidEntry.exit
  %.0 = phi ptr [ %47, %lpAssertValidEntry.exit ], [ null, %lpSkip.exit ]
  ret ptr %.0
}